Certificate:
    Data:
        Version: 3 (0x2)
        Serial Number:
            81:18:df:dd:0b:bb:c4:24:89:61:a4:90:f3:6b:89:d3
        Signature Algorithm: sha512WithRSAEncryption
        Issuer: CN=SIDEL
        Validity
            Not Before: Apr  7 22:12:07 2021 GMT
            Not After : Jul 11 22:12:07 2023 GMT
        Subject: C=MX, ST=Jalisco, L=Guadalajara, O=CINVESTAV, OU=Unidad gdl, CN=ABEL-TESTING/emailAddress=Abel.Garcia@cinvestav.mx
        Subject Public Key Info:
            Public Key Algorithm: rsaEncryption
                RSA Public-Key: (2048 bit)
                Modulus:
                    00:be:aa:23:d0:34:a0:96:f5:fb:65:3e:19:91:11:
                    b6:a2:7a:0c:6b:4a:84:2f:c7:29:ef:79:16:a7:b6:
                    e3:15:aa:ea:76:34:24:74:80:8a:89:13:e8:f3:ca:
                    b5:6b:3c:e9:58:70:23:f6:f8:c8:ce:19:e5:8b:ea:
                    d3:c7:66:f3:a6:8f:08:d4:0a:fc:4e:0c:ec:e5:3b:
                    19:b0:b1:cc:09:06:51:59:5f:e3:b1:dd:0e:6a:65:
                    fa:40:76:be:ca:e0:77:03:c3:92:16:10:b1:ae:6f:
                    86:19:96:b7:a0:66:44:fb:a8:ca:6f:76:21:f3:0a:
                    d4:7a:41:e2:1b:6e:95:bb:ca:64:e1:6a:02:e8:26:
                    bc:b2:46:d8:da:67:83:09:ef:ad:10:b9:65:a5:3b:
                    6f:a0:c4:a4:72:7f:44:6a:89:9b:a6:f8:ce:05:ad:
                    25:58:ba:12:d8:e8:7a:92:4a:cf:fb:8a:a6:80:d5:
                    61:3b:c6:21:c3:db:06:b1:28:5a:f5:2d:df:5e:da:
                    e4:ff:ab:5f:7d:91:bb:f2:33:9a:35:ae:a0:f3:73:
                    10:a9:93:2a:27:ec:10:d7:58:84:87:80:d9:74:5e:
                    4d:b2:77:89:1c:0a:a9:14:cb:07:b7:86:73:50:4f:
                    c5:05:47:2f:9a:5b:4e:e6:a5:84:fa:b1:3e:2f:14:
                    24:8f
                Exponent: 65537 (0x10001)
        X509v3 extensions:
            X509v3 Basic Constraints: 
                CA:FALSE
            X509v3 Subject Key Identifier: 
                66:FA:41:D7:9F:8C:CA:F4:4B:EF:A2:F8:E4:92:B9:47:2E:06:2B:50
            X509v3 Authority Key Identifier: 
                keyid:81:66:6D:C0:86:30:45:CE:66:07:92:AA:18:01:AA:9A:09:AC:04:65
                DirName:/CN=SIDEL
                serial:7D:AD:29:07:E4:55:71:46:2F:B0:6D:AF:A6:39:EF:BC:DA:3C:36:2C

            X509v3 Extended Key Usage: 
                TLS Web Client Authentication
            X509v3 Key Usage: 
                Digital Signature
    Signature Algorithm: sha512WithRSAEncryption
         37:1c:7c:ab:d1:19:13:74:52:fd:52:1d:de:da:0b:bc:c4:c9:
         1e:36:e2:fd:f1:53:5c:7d:4c:19:31:64:89:8c:6a:55:d9:de:
         ab:ce:7b:11:6e:bb:74:45:f3:c1:f0:1b:16:ad:fb:43:57:99:
         3b:0b:8d:d1:4b:7a:20:20:ea:ba:42:bd:04:d7:16:b7:fe:7f:
         b3:99:83:5b:40:42:d6:d8:94:cd:fa:a3:bb:4c:fd:9b:03:3a:
         5b:58:fe:41:97:96:53:f2:de:f9:f8:dd:11:02:d5:69:33:47:
         bf:86:86:45:cb:37:6b:4b:d3:63:1b:57:01:9c:04:2f:15:61:
         59:64:4f:ff:85:c1:cf:b7:0b:63:81:ae:65:43:36:0f:6a:cc:
         0b:ca:98:8c:fc:5e:5f:cd:b9:9c:8e:c9:28:cc:06:30:44:f4:
         27:5f:17:41:94:61:13:4f:f2:72:e7:96:7d:49:35:cd:31:31:
         7a:a4:c4:68:40:63:17:cd:de:e2:31:04:a2:d7:73:8b:12:1f:
         20:44:87:24:2c:9c:c1:d6:00:2e:5f:76:fd:1d:80:b5:20:3b:
         e2:f3:33:70:48:91:be:af:9e:0d:fb:02:3a:d4:f2:3b:c1:59:
         69:9c:90:9a:66:ad:4e:8a:dd:54:a6:66:8a:f5:6e:0b:8b:06:
         86:79:56:cc
-----BEGIN CERTIFICATE-----
MIID1zCCAr+gAwIBAgIRAIEY390Lu8QkiWGkkPNridMwDQYJKoZIhvcNAQENBQAw
EDEOMAwGA1UEAwwFU0lERUwwHhcNMjEwNDA3MjIxMjA3WhcNMjMwNzExMjIxMjA3
WjCBnjELMAkGA1UEBhMCTVgxEDAOBgNVBAgMB0phbGlzY28xFDASBgNVBAcMC0d1
YWRhbGFqYXJhMRIwEAYDVQQKDAlDSU5WRVNUQVYxEzARBgNVBAsMClVuaWRhZCBn
ZGwxFTATBgNVBAMMDEFCRUwtVEVTVElORzEnMCUGCSqGSIb3DQEJARYYQWJlbC5H
YXJjaWFAY2ludmVzdGF2Lm14MIIBIjANBgkqhkiG9w0BAQEFAAOCAQ8AMIIBCgKC
AQEAvqoj0DSglvX7ZT4ZkRG2onoMa0qEL8cp73kWp7bjFarqdjQkdICKiRPo88q1
azzpWHAj9vjIzhnli+rTx2bzpo8I1Ar8Tgzs5TsZsLHMCQZRWV/jsd0OamX6QHa+
yuB3A8OSFhCxrm+GGZa3oGZE+6jKb3Yh8wrUekHiG26Vu8pk4WoC6Ca8skbY2meD
Ce+tELllpTtvoMSkcn9EaombpvjOBa0lWLoS2Oh6kkrP+4qmgNVhO8Yhw9sGsSha
9S3fXtrk/6tffZG78jOaNa6g83MQqZMqJ+wQ11iEh4DZdF5NsneJHAqpFMsHt4Zz
UE/FBUcvmltO5qWE+rE+LxQkjwIDAQABo4GcMIGZMAkGA1UdEwQCMAAwHQYDVR0O
BBYEFGb6QdefjMr0S++i+OSSuUcuBitQMEsGA1UdIwREMEKAFIFmbcCGMEXOZgeS
qhgBqpoJrARloRSkEjAQMQ4wDAYDVQQDDAVTSURFTIIUfa0pB+RVcUYvsG2vpjnv
vNo8NiwwEwYDVR0lBAwwCgYIKwYBBQUHAwIwCwYDVR0PBAQDAgeAMA0GCSqGSIb3
DQEBDQUAA4IBAQA3HHyr0RkTdFL9Uh3e2gu8xMkeNuL98VNcfUwZMWSJjGpV2d6r
znsRbrt0RfPB8BsWrftDV5k7C43RS3ogIOq6Qr0E1xa3/n+zmYNbQELW2JTN+qO7
TP2bAzpbWP5Bl5ZT8t75+N0RAtVpM0e/hoZFyzdrS9NjG1cBnAQvFWFZZE//hcHP
twtjga5lQzYPaswLypiM/F5fzbmcjskozAYwRPQnXxdBlGETT/Jy55Z9STXNMTF6
pMRoQGMXzd7iMQSi13OLEh8gRIckLJzB1gAuX3b9HYC1IDvi8zNwSJG+r54N+wI6
1PI7wVlpnJCaZq1Oit1UpmaK9W4LiwaGeVbM
-----END CERTIFICATE-----
