Certificate:
    Data:
        Version: 3 (0x2)
        Serial Number:
            f8:1c:66:f2:09:20:8d:0c:e7:bd:d0:1a:e2:fc:fd:4d
        Signature Algorithm: sha512WithRSAEncryption
        Issuer: CN=SIDEL
        Validity
            Not Before: Apr  7 22:12:24 2021 GMT
            Not After : Jul 11 22:12:24 2023 GMT
        Subject: C=MX, ST=Jalisco, L=Guadalajara, O=CINVESTAV, OU=Unidad gdl, CN=CARLOS-TESTING/emailAddress=Carlos.Cardenas@cinvestav.mx
        Subject Public Key Info:
            Public Key Algorithm: rsaEncryption
                RSA Public-Key: (2048 bit)
                Modulus:
                    00:c6:e1:a2:66:ad:f3:df:e8:3f:d6:df:6f:f3:12:
                    0c:49:65:48:56:de:57:dc:8e:bf:8d:60:26:b7:19:
                    8d:3a:cc:1c:ec:94:65:11:66:19:47:2f:01:99:28:
                    43:f2:e7:88:36:43:dd:5e:a6:38:65:28:71:89:72:
                    90:7e:0a:27:56:a7:7f:61:e2:88:66:36:8c:59:91:
                    f2:b3:05:16:e5:c8:c4:7d:d7:cb:66:58:d4:32:74:
                    cb:77:04:e5:45:f9:17:b4:6e:24:54:4e:55:61:30:
                    be:fc:9e:69:52:0c:4e:40:da:52:52:eb:0c:d1:a2:
                    1e:b9:f7:03:d9:57:05:c6:9a:3e:a2:ca:e9:84:26:
                    14:ae:dc:25:f9:14:a8:ef:1b:fd:5a:9e:c4:e2:42:
                    26:d2:e3:e4:ff:52:1d:1b:c5:68:4a:d9:83:47:da:
                    9d:7f:b7:21:6e:61:18:dc:88:81:4e:7e:fc:29:cf:
                    dc:47:f9:24:ae:55:7d:b9:ef:98:75:1a:fa:d1:b1:
                    e2:97:54:8d:48:91:21:0f:24:2f:2f:ea:62:4e:8d:
                    87:b6:09:be:06:9d:8e:0f:6d:ab:fc:d6:1b:32:b5:
                    9c:d6:e9:93:51:d3:b4:db:80:82:e3:21:04:c1:30:
                    68:ec:09:a6:67:9b:c3:cb:d3:f4:82:e9:11:14:4f:
                    7d:47
                Exponent: 65537 (0x10001)
        X509v3 extensions:
            X509v3 Basic Constraints: 
                CA:FALSE
            X509v3 Subject Key Identifier: 
                80:8B:0D:A8:B1:6D:D4:FE:75:64:1E:8B:B5:69:D2:C8:FC:03:5C:A8
            X509v3 Authority Key Identifier: 
                keyid:81:66:6D:C0:86:30:45:CE:66:07:92:AA:18:01:AA:9A:09:AC:04:65
                DirName:/CN=SIDEL
                serial:7D:AD:29:07:E4:55:71:46:2F:B0:6D:AF:A6:39:EF:BC:DA:3C:36:2C

            X509v3 Extended Key Usage: 
                TLS Web Client Authentication
            X509v3 Key Usage: 
                Digital Signature
    Signature Algorithm: sha512WithRSAEncryption
         43:54:9b:f2:e8:7c:07:67:f2:7c:eb:23:bf:e9:b4:ab:cc:04:
         70:98:8f:4e:ca:77:d6:db:e7:59:be:69:64:27:74:ef:d2:4f:
         f7:7b:7e:93:f5:8d:a9:9d:61:22:28:e1:a8:82:df:a6:18:25:
         c2:08:e1:6c:7d:97:24:f4:1f:96:a2:69:b6:78:fd:85:a4:db:
         d0:d8:5a:9c:15:6a:f0:52:52:f7:12:d9:4b:94:a3:c9:ba:56:
         e8:4d:39:43:13:5d:01:ed:91:f1:0f:dc:7b:68:5d:fc:ab:76:
         9a:3b:04:5d:b4:a8:b9:cc:4d:f3:94:37:9a:15:97:4a:74:10:
         08:f2:59:01:fb:c1:4c:59:8b:ef:6b:ae:11:f5:58:4c:cd:50:
         f6:37:4f:58:44:a8:25:24:64:21:53:98:82:b0:13:e5:b0:b3:
         e2:9e:44:48:3e:17:60:2f:4b:d9:d5:a7:52:ac:7a:61:22:c0:
         5b:60:ca:36:cd:8c:60:87:4d:c2:2f:88:cf:75:98:20:56:5f:
         d3:83:1f:3f:81:68:44:8b:72:71:a4:75:af:78:98:f3:bd:48:
         ab:d6:97:ff:e1:52:77:23:a3:6d:a4:38:b9:b1:43:9f:5e:8d:
         96:3d:02:a2:9f:65:87:e5:70:7b:98:e5:f1:fe:b0:17:e4:42:
         9c:86:dc:0b
-----BEGIN CERTIFICATE-----
MIID3TCCAsWgAwIBAgIRAPgcZvIJII0M573QGuL8/U0wDQYJKoZIhvcNAQENBQAw
EDEOMAwGA1UEAwwFU0lERUwwHhcNMjEwNDA3MjIxMjI0WhcNMjMwNzExMjIxMjI0
WjCBpDELMAkGA1UEBhMCTVgxEDAOBgNVBAgMB0phbGlzY28xFDASBgNVBAcMC0d1
YWRhbGFqYXJhMRIwEAYDVQQKDAlDSU5WRVNUQVYxEzARBgNVBAsMClVuaWRhZCBn
ZGwxFzAVBgNVBAMMDkNBUkxPUy1URVNUSU5HMSswKQYJKoZIhvcNAQkBFhxDYXJs
b3MuQ2FyZGVuYXNAY2ludmVzdGF2Lm14MIIBIjANBgkqhkiG9w0BAQEFAAOCAQ8A
MIIBCgKCAQEAxuGiZq3z3+g/1t9v8xIMSWVIVt5X3I6/jWAmtxmNOswc7JRlEWYZ
Ry8BmShD8ueINkPdXqY4ZShxiXKQfgonVqd/YeKIZjaMWZHyswUW5cjEfdfLZljU
MnTLdwTlRfkXtG4kVE5VYTC+/J5pUgxOQNpSUusM0aIeufcD2VcFxpo+osrphCYU
rtwl+RSo7xv9Wp7E4kIm0uPk/1IdG8VoStmDR9qdf7chbmEY3IiBTn78Kc/cR/kk
rlV9ue+YdRr60bHil1SNSJEhDyQvL+piTo2Htgm+Bp2OD22r/NYbMrWc1umTUdO0
24CC4yEEwTBo7AmmZ5vDy9P0gukRFE99RwIDAQABo4GcMIGZMAkGA1UdEwQCMAAw
HQYDVR0OBBYEFICLDaixbdT+dWQei7Vp0sj8A1yoMEsGA1UdIwREMEKAFIFmbcCG
MEXOZgeSqhgBqpoJrARloRSkEjAQMQ4wDAYDVQQDDAVTSURFTIIUfa0pB+RVcUYv
sG2vpjnvvNo8NiwwEwYDVR0lBAwwCgYIKwYBBQUHAwIwCwYDVR0PBAQDAgeAMA0G
CSqGSIb3DQEBDQUAA4IBAQBDVJvy6HwHZ/J86yO/6bSrzARwmI9OynfW2+dZvmlk
J3Tv0k/3e36T9Y2pnWEiKOGogt+mGCXCCOFsfZck9B+Womm2eP2FpNvQ2FqcFWrw
UlL3EtlLlKPJulboTTlDE10B7ZHxD9x7aF38q3aaOwRdtKi5zE3zlDeaFZdKdBAI
8lkB+8FMWYvva64R9VhMzVD2N09YRKglJGQhU5iCsBPlsLPinkRIPhdgL0vZ1adS
rHphIsBbYMo2zYxgh03CL4jPdZggVl/Tgx8/gWhEi3JxpHWveJjzvUir1pf/4VJ3
I6NtpDi5sUOfXo2WPQKin2WH5XB7mOXx/rAX5EKchtwL
-----END CERTIFICATE-----
