Certificate:
    Data:
        Version: 3 (0x2)
        Serial Number:
            11:12:fc:32:f2:d2:9b:35:11:89:50:fa:b8:91:a3:32
        Signature Algorithm: sha512WithRSAEncryption
        Issuer: CN=SIDEL
        Validity
            Not Before: Apr  7 22:12:43 2021 GMT
            Not After : Jul 11 22:12:43 2023 GMT
        Subject: C=MX, ST=Jalisco, L=Guadalajara, O=CINVESTAV, OU=Unidad gdl, CN=DANIEL-TESTING/emailAddress=Hector.Diaz@cinvestav.mx
        Subject Public Key Info:
            Public Key Algorithm: rsaEncryption
                RSA Public-Key: (2048 bit)
                Modulus:
                    00:ce:19:5d:49:2a:30:1f:9e:54:4f:e2:45:19:0c:
                    71:d8:13:20:5b:86:c0:a1:79:12:c1:e1:73:59:18:
                    9f:b8:e1:37:91:6f:49:2f:1f:68:a0:e1:40:aa:df:
                    c0:b8:d1:9e:f5:76:d2:3d:22:50:02:37:25:31:4a:
                    39:02:03:a0:7f:7c:a4:41:96:84:e4:4f:cb:39:ad:
                    a5:c9:39:6a:9e:a3:f8:1b:fd:87:ef:a7:c2:83:ef:
                    fa:c1:b5:71:6a:d2:97:1c:f6:e7:07:60:9c:fa:a8:
                    3f:0c:31:04:c3:9c:5f:8c:33:84:8d:33:69:8a:e6:
                    c0:a3:56:fa:5e:b8:d6:30:93:1b:c0:2e:96:7f:dd:
                    36:60:5a:43:20:06:66:5d:a6:a8:54:2a:59:e0:cf:
                    4c:a6:54:fa:b6:db:44:b5:5f:b2:c4:9e:f9:b2:55:
                    63:02:c2:dc:90:03:ff:8a:13:60:5b:a6:b1:8a:bd:
                    88:68:e4:e3:7c:57:df:82:90:f9:5d:2b:3d:2e:55:
                    a5:98:94:16:0a:79:86:d4:8c:73:f8:68:54:da:73:
                    48:f0:29:41:2b:5d:b9:07:2f:1c:a1:8e:2e:22:98:
                    38:78:47:a1:8a:6e:e0:e3:df:32:3f:e5:29:04:a8:
                    fe:6a:5f:d0:66:67:54:e2:92:af:b6:09:eb:d6:c3:
                    d9:15
                Exponent: 65537 (0x10001)
        X509v3 extensions:
            X509v3 Basic Constraints: 
                CA:FALSE
            X509v3 Subject Key Identifier: 
                30:3D:9A:16:20:1D:96:BF:CD:0C:F8:74:3E:E7:66:53:2D:F1:0A:3C
            X509v3 Authority Key Identifier: 
                keyid:81:66:6D:C0:86:30:45:CE:66:07:92:AA:18:01:AA:9A:09:AC:04:65
                DirName:/CN=SIDEL
                serial:7D:AD:29:07:E4:55:71:46:2F:B0:6D:AF:A6:39:EF:BC:DA:3C:36:2C

            X509v3 Extended Key Usage: 
                TLS Web Client Authentication
            X509v3 Key Usage: 
                Digital Signature
    Signature Algorithm: sha512WithRSAEncryption
         7b:be:1d:66:c8:30:4b:8b:90:9c:7e:71:7d:8c:be:79:3a:27:
         bc:59:5a:a6:7a:f4:70:e7:65:0b:c0:eb:47:ff:4b:1e:29:63:
         62:75:d9:b7:2a:93:a3:42:cf:54:14:e6:26:9f:0f:0a:d5:5e:
         f2:e1:e4:58:d0:4c:42:3c:d9:84:3d:75:b5:0f:ba:c5:e6:21:
         fc:83:9a:09:38:ef:6a:c7:bd:08:64:71:5c:e7:10:38:0e:a3:
         cf:01:5b:53:ed:ee:43:fe:76:f6:fb:93:e3:c1:93:35:28:2c:
         ba:2f:5a:19:84:cd:2d:57:40:5e:b0:2c:f1:1d:75:a2:69:b2:
         7a:44:b5:7b:d9:55:09:7f:a4:66:bb:5b:70:fa:1e:96:3a:ee:
         bb:5b:36:f3:3d:09:7f:76:ce:f2:d4:0c:8f:ab:5f:67:da:4e:
         95:5f:90:50:9f:5b:c2:a5:56:4c:57:bb:79:e7:91:0b:e4:d0:
         6c:a6:d5:28:f8:65:6a:62:77:58:f4:a2:51:39:de:58:5d:86:
         39:e9:e7:d0:66:82:78:f9:4b:31:e0:25:a4:2b:18:e2:c9:8e:
         30:90:95:93:9d:ab:9d:e0:08:64:e5:cb:cc:72:0e:51:f5:be:
         fd:a7:5c:47:fe:46:91:30:81:f7:db:ae:1a:7b:ba:aa:9b:e1:
         6c:22:d0:0a
-----BEGIN CERTIFICATE-----
MIID2DCCAsCgAwIBAgIQERL8MvLSmzURiVD6uJGjMjANBgkqhkiG9w0BAQ0FADAQ
MQ4wDAYDVQQDDAVTSURFTDAeFw0yMTA0MDcyMjEyNDNaFw0yMzA3MTEyMjEyNDNa
MIGgMQswCQYDVQQGEwJNWDEQMA4GA1UECAwHSmFsaXNjbzEUMBIGA1UEBwwLR3Vh
ZGFsYWphcmExEjAQBgNVBAoMCUNJTlZFU1RBVjETMBEGA1UECwwKVW5pZGFkIGdk
bDEXMBUGA1UEAwwOREFOSUVMLVRFU1RJTkcxJzAlBgkqhkiG9w0BCQEWGEhlY3Rv
ci5EaWF6QGNpbnZlc3Rhdi5teDCCASIwDQYJKoZIhvcNAQEBBQADggEPADCCAQoC
ggEBAM4ZXUkqMB+eVE/iRRkMcdgTIFuGwKF5EsHhc1kYn7jhN5FvSS8faKDhQKrf
wLjRnvV20j0iUAI3JTFKOQIDoH98pEGWhORPyzmtpck5ap6j+Bv9h++nwoPv+sG1
cWrSlxz25wdgnPqoPwwxBMOcX4wzhI0zaYrmwKNW+l641jCTG8Auln/dNmBaQyAG
Zl2mqFQqWeDPTKZU+rbbRLVfssSe+bJVYwLC3JAD/4oTYFumsYq9iGjk43xX34KQ
+V0rPS5VpZiUFgp5htSMc/hoVNpzSPApQStduQcvHKGOLiKYOHhHoYpu4OPfMj/l
KQSo/mpf0GZnVOKSr7YJ69bD2RUCAwEAAaOBnDCBmTAJBgNVHRMEAjAAMB0GA1Ud
DgQWBBQwPZoWIB2Wv80M+HQ+52ZTLfEKPDBLBgNVHSMERDBCgBSBZm3AhjBFzmYH
kqoYAaqaCawEZaEUpBIwEDEOMAwGA1UEAwwFU0lERUyCFH2tKQfkVXFGL7Btr6Y5
77zaPDYsMBMGA1UdJQQMMAoGCCsGAQUFBwMCMAsGA1UdDwQEAwIHgDANBgkqhkiG
9w0BAQ0FAAOCAQEAe74dZsgwS4uQnH5xfYy+eTonvFlapnr0cOdlC8DrR/9LHilj
YnXZtyqTo0LPVBTmJp8PCtVe8uHkWNBMQjzZhD11tQ+6xeYh/IOaCTjvase9CGRx
XOcQOA6jzwFbU+3uQ/529vuT48GTNSgsui9aGYTNLVdAXrAs8R11ommyekS1e9lV
CX+kZrtbcPoeljruu1s28z0Jf3bO8tQMj6tfZ9pOlV+QUJ9bwqVWTFe7eeeRC+TQ
bKbVKPhlamJ3WPSiUTneWF2GOenn0GaCePlLMeAlpCsY4smOMJCVk52rneAIZOXL
zHIOUfW+/adcR/5GkTCB99uuGnu6qpvhbCLQCg==
-----END CERTIFICATE-----
