Certificate:
    Data:
        Version: 3 (0x2)
        Serial Number:
            7a:39:74:49:ac:65:66:1f:36:d8:07:a7:7d:27:db:67
        Signature Algorithm: sha512WithRSAEncryption
        Issuer: CN=SIDEL
        Validity
            Not Before: Apr  7 22:12:55 2021 GMT
            Not After : Jul 11 22:12:55 2023 GMT
        Subject: C=MX, ST=Jalisco, L=Guadalajara, O=CINVESTAV, OU=Unidad gdl, CN=JUAN-TESTING/emailAddress=jbcamacho@gmail.com
        Subject Public Key Info:
            Public Key Algorithm: rsaEncryption
                RSA Public-Key: (2048 bit)
                Modulus:
                    00:bb:56:28:2a:ed:7a:5c:f5:41:27:70:73:c6:ac:
                    61:df:53:9f:b5:38:6a:0c:b7:b1:1f:90:92:1d:27:
                    59:3b:54:74:89:2d:92:ef:00:b8:b4:84:fc:4e:b3:
                    dc:32:b3:37:b4:a6:d7:8b:01:70:03:a4:89:86:2d:
                    e9:8a:bd:08:42:87:7d:20:0d:98:98:36:1a:d4:37:
                    9c:50:0a:44:c5:a6:2b:a5:e4:81:59:53:d7:8b:6d:
                    f8:73:02:6b:a4:bd:48:df:e2:2d:30:91:5c:33:87:
                    cd:fe:84:ca:a9:29:4c:dd:ad:e1:91:af:e4:95:55:
                    f0:89:ad:50:56:26:9d:ba:65:9e:54:95:87:89:f2:
                    44:a0:b6:ca:25:27:fa:8b:c0:1c:01:70:2b:2a:a1:
                    ba:5c:ba:12:a7:3c:bc:30:3e:0f:cf:a4:aa:f9:69:
                    53:22:f5:ff:bf:ce:d3:59:0c:ac:65:27:f0:5b:5c:
                    c1:b2:72:a5:c1:c2:8d:26:0b:4a:f1:9e:ce:09:77:
                    bb:aa:c4:2f:e3:4d:5f:c3:6e:b4:3a:af:e9:cf:c6:
                    68:e1:62:07:fd:e6:b2:39:67:22:60:b1:c7:38:d5:
                    69:59:0f:3c:cc:aa:48:6c:68:1e:be:7d:ab:76:1c:
                    39:f7:ff:a1:62:db:eb:90:ae:bd:0a:d6:6b:a1:5e:
                    92:33
                Exponent: 65537 (0x10001)
        X509v3 extensions:
            X509v3 Basic Constraints: 
                CA:FALSE
            X509v3 Subject Key Identifier: 
                1B:F7:E0:84:E0:C6:1B:3A:CD:1A:A3:8D:C7:1F:5B:1E:61:4F:8A:90
            X509v3 Authority Key Identifier: 
                keyid:81:66:6D:C0:86:30:45:CE:66:07:92:AA:18:01:AA:9A:09:AC:04:65
                DirName:/CN=SIDEL
                serial:7D:AD:29:07:E4:55:71:46:2F:B0:6D:AF:A6:39:EF:BC:DA:3C:36:2C

            X509v3 Extended Key Usage: 
                TLS Web Client Authentication
            X509v3 Key Usage: 
                Digital Signature
    Signature Algorithm: sha512WithRSAEncryption
         03:f2:49:02:2a:ae:e5:51:a4:5e:56:57:88:28:e0:93:23:f1:
         9c:4b:2d:2f:4e:97:f1:11:d3:05:a9:b8:b3:51:ba:e7:f3:8e:
         2b:7a:14:94:90:c3:ec:66:ed:04:fd:25:9f:47:6b:1d:00:07:
         8e:f2:d1:4f:c0:97:89:01:54:75:68:70:92:75:fc:34:91:90:
         60:55:eb:3f:bf:10:79:a8:c0:28:d1:9e:67:06:3f:66:71:ef:
         eb:01:ea:cd:89:d7:b8:99:73:43:46:89:8c:53:c7:5e:68:76:
         bc:21:13:5b:b3:93:52:22:ef:87:34:96:fa:a7:fb:65:88:56:
         cf:bf:71:aa:e0:c4:df:bb:25:cb:1d:9a:c5:d9:fb:9b:58:77:
         92:38:c2:b9:63:f3:fa:c7:87:b8:32:b6:b2:42:3c:f2:11:ed:
         4c:a4:72:1d:e0:51:eb:c4:c1:28:de:8d:55:ef:c0:ec:e3:15:
         99:54:53:93:94:ed:f1:24:26:16:e8:50:a4:71:29:00:32:39:
         3e:09:e7:76:1e:e5:6a:a9:00:6b:cf:9a:8d:e2:d8:25:c9:6e:
         a7:16:e6:f5:16:14:8d:eb:06:4f:d6:20:a9:40:a9:88:99:2c:
         b7:b5:6e:cb:70:a5:26:6a:95:96:0a:44:65:29:30:03:e4:4f:
         da:73:c6:cf
-----BEGIN CERTIFICATE-----
MIID0TCCArmgAwIBAgIQejl0SaxlZh822AenfSfbZzANBgkqhkiG9w0BAQ0FADAQ
MQ4wDAYDVQQDDAVTSURFTDAeFw0yMTA0MDcyMjEyNTVaFw0yMzA3MTEyMjEyNTVa
MIGZMQswCQYDVQQGEwJNWDEQMA4GA1UECAwHSmFsaXNjbzEUMBIGA1UEBwwLR3Vh
ZGFsYWphcmExEjAQBgNVBAoMCUNJTlZFU1RBVjETMBEGA1UECwwKVW5pZGFkIGdk
bDEVMBMGA1UEAwwMSlVBTi1URVNUSU5HMSIwIAYJKoZIhvcNAQkBFhNqYmNhbWFj
aG9AZ21haWwuY29tMIIBIjANBgkqhkiG9w0BAQEFAAOCAQ8AMIIBCgKCAQEAu1Yo
Ku16XPVBJ3Bzxqxh31OftThqDLexH5CSHSdZO1R0iS2S7wC4tIT8TrPcMrM3tKbX
iwFwA6SJhi3pir0IQod9IA2YmDYa1DecUApExaYrpeSBWVPXi234cwJrpL1I3+It
MJFcM4fN/oTKqSlM3a3hka/klVXwia1QViadumWeVJWHifJEoLbKJSf6i8AcAXAr
KqG6XLoSpzy8MD4Pz6Sq+WlTIvX/v87TWQysZSfwW1zBsnKlwcKNJgtK8Z7OCXe7
qsQv401fw260Oq/pz8Zo4WIH/eayOWciYLHHONVpWQ88zKpIbGgevn2rdhw59/+h
YtvrkK69CtZroV6SMwIDAQABo4GcMIGZMAkGA1UdEwQCMAAwHQYDVR0OBBYEFBv3
4ITgxhs6zRqjjccfWx5hT4qQMEsGA1UdIwREMEKAFIFmbcCGMEXOZgeSqhgBqpoJ
rARloRSkEjAQMQ4wDAYDVQQDDAVTSURFTIIUfa0pB+RVcUYvsG2vpjnvvNo8Niww
EwYDVR0lBAwwCgYIKwYBBQUHAwIwCwYDVR0PBAQDAgeAMA0GCSqGSIb3DQEBDQUA
A4IBAQAD8kkCKq7lUaReVleIKOCTI/GcSy0vTpfxEdMFqbizUbrn844rehSUkMPs
Zu0E/SWfR2sdAAeO8tFPwJeJAVR1aHCSdfw0kZBgVes/vxB5qMAo0Z5nBj9mce/r
AerNide4mXNDRomMU8deaHa8IRNbs5NSIu+HNJb6p/tliFbPv3Gq4MTfuyXLHZrF
2fubWHeSOMK5Y/P6x4e4MrayQjzyEe1MpHId4FHrxMEo3o1V78Ds4xWZVFOTlO3x
JCYW6FCkcSkAMjk+Ced2HuVqqQBrz5qN4tglyW6nFub1FhSN6wZP1iCpQKmImSy3
tW7LcKUmapWWCkRlKTAD5E/ac8bP
-----END CERTIFICATE-----
