Certificate:
    Data:
        Version: 3 (0x2)
        Serial Number:
            25:44:21:09:64:23:b6:71:2d:dd:55:84:c7:a8:f9:43
        Signature Algorithm: sha512WithRSAEncryption
        Issuer: CN=SIDEL
        Validity
            Not Before: Apr  7 22:13:05 2021 GMT
            Not After : Jul 11 22:13:05 2023 GMT
        Subject: C=MX, ST=Jalisco, L=Guadalajara, O=CINVESTAV, OU=Unidad gdl, CN=JULIA-TESTING/emailAddress=Julia.Rodriguez@cinvestav.mx
        Subject Public Key Info:
            Public Key Algorithm: rsaEncryption
                RSA Public-Key: (2048 bit)
                Modulus:
                    00:ac:49:ab:cb:d0:3a:4d:95:c6:5f:82:c2:30:31:
                    50:4b:43:0b:a6:7c:d4:0f:df:44:bd:84:71:67:ee:
                    ba:52:c8:6a:1d:3f:1c:a3:36:9e:24:2e:00:e3:a9:
                    13:32:bb:37:61:b3:f0:1b:62:bb:a1:3e:fb:79:9f:
                    dd:13:97:e3:a0:38:dd:61:a2:87:f2:a7:79:03:56:
                    1d:e3:21:4b:ce:aa:30:9d:f2:5a:40:36:7f:b2:42:
                    69:18:8b:e9:39:4c:14:67:48:f9:f2:8f:b3:7e:11:
                    37:02:41:ab:63:98:58:9b:a4:bb:db:61:f5:bc:00:
                    6f:8d:80:4f:f0:e7:47:49:36:15:7e:d7:00:90:23:
                    f0:e8:cc:9a:8d:68:91:65:f9:93:51:01:f5:1c:c9:
                    4e:31:a0:7e:5d:2f:11:78:38:c6:23:14:83:99:fe:
                    c4:80:07:bb:0e:d4:72:97:a0:a3:56:e6:63:f7:00:
                    27:38:6d:10:94:89:90:6f:62:1d:e6:a0:89:19:e5:
                    6b:ea:9f:67:c1:9e:57:19:12:3e:9a:59:3c:98:4b:
                    13:28:38:c6:fc:7e:0f:ae:be:77:7d:08:ec:f1:9e:
                    81:10:ff:e5:45:42:61:73:4c:60:30:64:ee:ac:02:
                    a7:41:84:10:48:c6:00:8b:cb:3f:28:2b:7f:8a:09:
                    56:7f
                Exponent: 65537 (0x10001)
        X509v3 extensions:
            X509v3 Basic Constraints: 
                CA:FALSE
            X509v3 Subject Key Identifier: 
                AE:DC:05:9D:3C:D9:D6:F3:76:5D:DD:A7:7B:1B:7F:D1:9D:65:24:21
            X509v3 Authority Key Identifier: 
                keyid:81:66:6D:C0:86:30:45:CE:66:07:92:AA:18:01:AA:9A:09:AC:04:65
                DirName:/CN=SIDEL
                serial:7D:AD:29:07:E4:55:71:46:2F:B0:6D:AF:A6:39:EF:BC:DA:3C:36:2C

            X509v3 Extended Key Usage: 
                TLS Web Client Authentication
            X509v3 Key Usage: 
                Digital Signature
    Signature Algorithm: sha512WithRSAEncryption
         9f:03:6f:3f:34:1d:8f:35:5f:ac:e5:6f:69:63:99:d9:34:99:
         e8:f6:c5:86:42:9c:3c:c1:95:39:59:e9:1b:60:27:f7:cf:b8:
         55:ab:e5:6e:8d:f9:ed:0a:4b:09:30:aa:04:56:9e:1d:6f:d4:
         82:6d:b9:2a:49:64:4a:14:3c:07:9a:15:20:89:5b:94:8e:01:
         cf:54:1b:75:48:74:43:44:0a:e5:20:57:60:34:ce:a6:73:05:
         04:55:5e:dc:e4:57:14:10:ca:b2:2a:75:14:ba:6c:f1:90:ca:
         65:07:b2:09:73:94:dc:32:bb:fd:fb:fd:60:1d:c7:8d:f2:68:
         e4:4d:ef:d1:4d:1a:6d:1e:f7:ac:37:18:de:d4:c0:b7:7b:3e:
         3b:5f:11:8e:c4:05:07:95:d8:ad:9c:5a:a2:34:05:c8:44:53:
         e8:f9:7a:a9:c7:3e:02:b5:74:3e:ef:ff:cd:69:ef:19:7b:c0:
         29:fa:59:aa:c3:51:cd:a4:31:85:4f:e4:58:90:ab:7d:db:e5:
         75:b6:52:29:97:25:30:da:9b:39:e7:e4:d8:d3:82:f1:16:78:
         5e:49:84:29:96:fe:5c:5d:77:2e:c1:11:2a:17:b9:79:cf:94:
         20:aa:b9:16:94:fb:40:f0:1c:48:22:31:b1:a8:a9:bf:dd:fd:
         6e:b0:01:9a
-----BEGIN CERTIFICATE-----
MIID2zCCAsOgAwIBAgIQJUQhCWQjtnEt3VWEx6j5QzANBgkqhkiG9w0BAQ0FADAQ
MQ4wDAYDVQQDDAVTSURFTDAeFw0yMTA0MDcyMjEzMDVaFw0yMzA3MTEyMjEzMDVa
MIGjMQswCQYDVQQGEwJNWDEQMA4GA1UECAwHSmFsaXNjbzEUMBIGA1UEBwwLR3Vh
ZGFsYWphcmExEjAQBgNVBAoMCUNJTlZFU1RBVjETMBEGA1UECwwKVW5pZGFkIGdk
bDEWMBQGA1UEAwwNSlVMSUEtVEVTVElORzErMCkGCSqGSIb3DQEJARYcSnVsaWEu
Um9kcmlndWV6QGNpbnZlc3Rhdi5teDCCASIwDQYJKoZIhvcNAQEBBQADggEPADCC
AQoCggEBAKxJq8vQOk2Vxl+CwjAxUEtDC6Z81A/fRL2EcWfuulLIah0/HKM2niQu
AOOpEzK7N2Gz8Btiu6E++3mf3ROX46A43WGih/KneQNWHeMhS86qMJ3yWkA2f7JC
aRiL6TlMFGdI+fKPs34RNwJBq2OYWJuku9th9bwAb42AT/DnR0k2FX7XAJAj8OjM
mo1okWX5k1EB9RzJTjGgfl0vEXg4xiMUg5n+xIAHuw7Ucpego1bmY/cAJzhtEJSJ
kG9iHeagiRnla+qfZ8GeVxkSPppZPJhLEyg4xvx+D66+d30I7PGegRD/5UVCYXNM
YDBk7qwCp0GEEEjGAIvLPygrf4oJVn8CAwEAAaOBnDCBmTAJBgNVHRMEAjAAMB0G
A1UdDgQWBBSu3AWdPNnW83Zd3ad7G3/RnWUkITBLBgNVHSMERDBCgBSBZm3AhjBF
zmYHkqoYAaqaCawEZaEUpBIwEDEOMAwGA1UEAwwFU0lERUyCFH2tKQfkVXFGL7Bt
r6Y577zaPDYsMBMGA1UdJQQMMAoGCCsGAQUFBwMCMAsGA1UdDwQEAwIHgDANBgkq
hkiG9w0BAQ0FAAOCAQEAnwNvPzQdjzVfrOVvaWOZ2TSZ6PbFhkKcPMGVOVnpG2An
98+4Vavlbo357QpLCTCqBFaeHW/Ugm25KklkShQ8B5oVIIlblI4Bz1QbdUh0Q0QK
5SBXYDTOpnMFBFVe3ORXFBDKsip1FLps8ZDKZQeyCXOU3DK7/fv9YB3HjfJo5E3v
0U0abR73rDcY3tTAt3s+O18RjsQFB5XYrZxaojQFyERT6Pl6qcc+ArV0Pu//zWnv
GXvAKfpZqsNRzaQxhU/kWJCrfdvldbZSKZclMNqbOefk2NOC8RZ4XkmEKZb+XF13
LsERKhe5ec+UIKq5FpT7QPAcSCIxsaipv939brABmg==
-----END CERTIFICATE-----
