Certificate:
    Data:
        Version: 3 (0x2)
        Serial Number:
            67:6b:02:e7:92:46:25:e9:b6:91:15:ff:b9:17:0d:7c
        Signature Algorithm: sha512WithRSAEncryption
        Issuer: CN=SIDEL
        Validity
            Not Before: Apr  7 22:13:16 2021 GMT
            Not After : Jul 11 22:13:16 2023 GMT
        Subject: C=MX, ST=Jalisco, L=Guadalajara, O=CINVESTAV, OU=Unidad gdl, CN=MARISOL-TESTING/emailAddress=Marisol.Vera@cinvestav.mx
        Subject Public Key Info:
            Public Key Algorithm: rsaEncryption
                RSA Public-Key: (2048 bit)
                Modulus:
                    00:cf:1a:dd:5f:13:a6:d6:38:00:87:6d:5d:a0:ef:
                    8d:2d:4b:e7:44:65:12:b1:15:1a:9b:8e:5d:36:49:
                    b9:fd:03:b5:2b:2b:23:f0:2d:fa:f5:4d:13:08:cd:
                    ac:df:93:4c:57:f5:bb:a6:9d:f3:94:81:f9:85:38:
                    25:91:40:b9:4a:ed:b1:d2:14:f7:de:49:41:12:bf:
                    6c:a8:33:4d:d5:fc:7e:cf:35:4e:d5:36:1c:d3:1f:
                    68:b5:2b:c1:37:a8:f9:f6:5a:79:0b:e4:0f:e9:64:
                    73:3d:10:29:3d:c7:72:46:f8:1a:fb:39:23:a8:28:
                    5a:4f:6f:49:81:30:d2:fa:48:54:08:b5:94:1f:15:
                    a1:b5:96:8f:5e:c1:0a:cc:50:8b:a1:25:a1:b1:05:
                    d4:83:dc:4a:c7:0f:7b:b6:3a:80:52:9a:d5:73:c6:
                    0a:b5:d0:41:66:22:6e:63:fc:dc:4a:14:50:d8:eb:
                    22:4a:8b:d9:8a:71:61:f5:5b:3c:a3:15:39:89:f4:
                    15:83:a1:45:06:a2:5f:2e:91:16:fd:c1:ff:5d:30:
                    3a:0f:68:48:0e:a3:03:65:0d:7d:98:71:56:b5:d1:
                    fa:2e:b5:f1:a1:68:a4:68:61:ed:b1:9e:75:c1:dc:
                    24:13:87:7e:62:83:2b:44:c8:87:5b:98:d8:26:fa:
                    ec:21
                Exponent: 65537 (0x10001)
        X509v3 extensions:
            X509v3 Basic Constraints: 
                CA:FALSE
            X509v3 Subject Key Identifier: 
                13:C6:F0:C4:AF:70:3B:22:D1:E4:1F:62:67:7D:95:54:6E:0C:92:83
            X509v3 Authority Key Identifier: 
                keyid:81:66:6D:C0:86:30:45:CE:66:07:92:AA:18:01:AA:9A:09:AC:04:65
                DirName:/CN=SIDEL
                serial:7D:AD:29:07:E4:55:71:46:2F:B0:6D:AF:A6:39:EF:BC:DA:3C:36:2C

            X509v3 Extended Key Usage: 
                TLS Web Client Authentication
            X509v3 Key Usage: 
                Digital Signature
    Signature Algorithm: sha512WithRSAEncryption
         18:c1:55:aa:72:ea:da:ad:f3:df:15:a9:65:e4:ad:1d:8a:fc:
         32:8a:a6:7e:cf:0f:45:8b:72:c8:f0:ad:a5:45:6b:3c:60:e0:
         d6:50:f2:7f:ed:14:47:dd:40:1c:ad:03:94:54:87:c0:3d:49:
         aa:1f:0d:47:c1:72:90:aa:32:64:e7:b0:93:0b:21:ab:16:8c:
         64:05:5c:99:5a:3a:3e:6a:27:87:d7:c0:d6:75:d6:5e:d8:72:
         e1:d9:d2:00:25:29:b4:ae:26:90:e6:da:94:e6:0b:c3:12:d2:
         fe:9c:56:dd:28:de:6e:60:81:64:95:9b:37:55:f1:2d:8c:19:
         57:55:43:f4:33:8c:cd:a9:c5:5a:4a:2f:0e:18:17:cc:ea:6d:
         b5:19:e8:69:a1:2b:de:ce:59:da:fd:64:5e:ad:c4:67:55:59:
         38:15:ac:3a:08:57:2e:8d:61:94:97:3f:df:6a:a6:a8:24:f5:
         68:1f:64:68:4e:1d:a7:20:1f:4d:dc:a6:8c:17:84:a6:03:66:
         8a:e5:f0:51:33:65:61:bb:ab:89:25:55:96:7f:da:d4:87:b4:
         75:81:9f:dc:d7:66:a3:96:5b:24:fa:2c:83:0d:2b:28:d0:75:
         b6:f0:9a:10:09:2e:e9:25:bb:dd:3c:0e:5a:58:cd:45:4d:87:
         a2:87:9d:9a
-----BEGIN CERTIFICATE-----
MIID2jCCAsKgAwIBAgIQZ2sC55JGJem2kRX/uRcNfDANBgkqhkiG9w0BAQ0FADAQ
MQ4wDAYDVQQDDAVTSURFTDAeFw0yMTA0MDcyMjEzMTZaFw0yMzA3MTEyMjEzMTZa
MIGiMQswCQYDVQQGEwJNWDEQMA4GA1UECAwHSmFsaXNjbzEUMBIGA1UEBwwLR3Vh
ZGFsYWphcmExEjAQBgNVBAoMCUNJTlZFU1RBVjETMBEGA1UECwwKVW5pZGFkIGdk
bDEYMBYGA1UEAwwPTUFSSVNPTC1URVNUSU5HMSgwJgYJKoZIhvcNAQkBFhlNYXJp
c29sLlZlcmFAY2ludmVzdGF2Lm14MIIBIjANBgkqhkiG9w0BAQEFAAOCAQ8AMIIB
CgKCAQEAzxrdXxOm1jgAh21doO+NLUvnRGUSsRUam45dNkm5/QO1Kysj8C369U0T
CM2s35NMV/W7pp3zlIH5hTglkUC5Su2x0hT33klBEr9sqDNN1fx+zzVO1TYc0x9o
tSvBN6j59lp5C+QP6WRzPRApPcdyRvga+zkjqChaT29JgTDS+khUCLWUHxWhtZaP
XsEKzFCLoSWhsQXUg9xKxw97tjqAUprVc8YKtdBBZiJuY/zcShRQ2OsiSovZinFh
9Vs8oxU5ifQVg6FFBqJfLpEW/cH/XTA6D2hIDqMDZQ19mHFWtdH6LrXxoWikaGHt
sZ51wdwkE4d+YoMrRMiHW5jYJvrsIQIDAQABo4GcMIGZMAkGA1UdEwQCMAAwHQYD
VR0OBBYEFBPG8MSvcDsi0eQfYmd9lVRuDJKDMEsGA1UdIwREMEKAFIFmbcCGMEXO
ZgeSqhgBqpoJrARloRSkEjAQMQ4wDAYDVQQDDAVTSURFTIIUfa0pB+RVcUYvsG2v
pjnvvNo8NiwwEwYDVR0lBAwwCgYIKwYBBQUHAwIwCwYDVR0PBAQDAgeAMA0GCSqG
SIb3DQEBDQUAA4IBAQAYwVWqcurarfPfFall5K0divwyiqZ+zw9Fi3LI8K2lRWs8
YODWUPJ/7RRH3UAcrQOUVIfAPUmqHw1HwXKQqjJk57CTCyGrFoxkBVyZWjo+aieH
18DWddZe2HLh2dIAJSm0riaQ5tqU5gvDEtL+nFbdKN5uYIFklZs3VfEtjBlXVUP0
M4zNqcVaSi8OGBfM6m21GehpoSvezlna/WRercRnVVk4Faw6CFcujWGUlz/faqao
JPVoH2RoTh2nIB9N3KaMF4SmA2aK5fBRM2Vhu6uJJVWWf9rUh7R1gZ/c12ajllsk
+iyDDSso0HW28JoQCS7pJbvdPA5aWM1FTYeih52a
-----END CERTIFICATE-----
